target datalayout = "e-m:e-p270:32:32-p271:32:32-p272:64:64-i64:64-i128:128-f80:128-n8:16:32:64-S128"
target triple = "x86_64-pc-linux-gnu"

%struct.add_p_state = type { %struct.add_i_state, %struct.strbuf, %struct.strbuf, %struct.strbuf, %struct.strbuf, ptr, i64, ptr, ptr }
%struct.add_i_state = type { ptr, i32, [75 x i8], [75 x i8], [75 x i8], [75 x i8], [75 x i8], [75 x i8], [75 x i8], [75 x i8], [75 x i8], i32, ptr, ptr }
%struct.strbuf = type { i64, i64, ptr }
%struct.file_diff = type { %struct.hunk, ptr, i64, i64, i8 }
%struct.hunk = type { i64, i64, i64, i64, i64, i64, i32, %struct.hunk_header }
%struct.hunk_header = type { i64, i64, i64, i64, i64, i64, i64, i64, i8 }

; Function Attrs: nounwind uwtable
define internal void @add_p_state_clear(ptr noundef %0) #0 {
  %2 = alloca ptr, align 8
  %3 = alloca i64, align 8
  store ptr %0, ptr %2, align 8, !tbaa !53
  call void @llvm.lifetime.start.p0(i64 8, ptr %3) #10
  %4 = load ptr, ptr %2, align 8, !tbaa !53
  %5 = getelementptr inbounds nuw %struct.add_p_state, ptr %4, i32 0, i32 1
  call void @strbuf_release(ptr noundef %5)
  %6 = load ptr, ptr %2, align 8, !tbaa !53
  %7 = getelementptr inbounds nuw %struct.add_p_state, ptr %6, i32 0, i32 2
  call void @strbuf_release(ptr noundef %7)
  %8 = load ptr, ptr %2, align 8, !tbaa !53
  %9 = getelementptr inbounds nuw %struct.add_p_state, ptr %8, i32 0, i32 3
  call void @strbuf_release(ptr noundef %9)
  %10 = load ptr, ptr %2, align 8, !tbaa !53
  %11 = getelementptr inbounds nuw %struct.add_p_state, ptr %10, i32 0, i32 4
  call void @strbuf_release(ptr noundef %11)
  store i64 0, ptr %3, align 8, !tbaa !20
  br label %12

12:                                               ; preds = %26, %1
  %13 = load i64, ptr %3, align 8, !tbaa !20
  %14 = load ptr, ptr %2, align 8, !tbaa !53
  %15 = getelementptr inbounds nuw %struct.add_p_state, ptr %14, i32 0, i32 6
  %16 = load i64, ptr %15, align 8, !tbaa !44
  %17 = icmp ult i64 %13, %16
  br i1 %17, label %18, label %29

18:                                               ; preds = %12
  %19 = load ptr, ptr %2, align 8, !tbaa !53
  %20 = getelementptr inbounds nuw %struct.add_p_state, ptr %19, i32 0, i32 5
  %21 = load ptr, ptr %20, align 8, !tbaa !45
  %22 = load i64, ptr %3, align 8, !tbaa !20
  %23 = getelementptr inbounds nuw %struct.file_diff, ptr %21, i64 %22
  %24 = getelementptr inbounds nuw %struct.file_diff, ptr %23, i32 0, i32 1
  %25 = load ptr, ptr %24, align 8, !tbaa !81
  call void @free(ptr noundef %25) #10
  br label %26

26:                                               ; preds = %18
  %27 = load i64, ptr %3, align 8, !tbaa !20
  %28 = add i64 %27, 1
  store i64 %28, ptr %3, align 8, !tbaa !20
  br label %12, !llvm.loop !86

29:                                               ; preds = %12
  %30 = load ptr, ptr %2, align 8, !tbaa !53
  %31 = getelementptr inbounds nuw %struct.add_p_state, ptr %30, i32 0, i32 5
  %32 = load ptr, ptr %31, align 8, !tbaa !45
  call void @free(ptr noundef %32) #10
  %33 = load ptr, ptr %2, align 8, !tbaa !53
  %34 = getelementptr inbounds nuw %struct.add_p_state, ptr %33, i32 0, i32 0
  call void @clear_add_i_state(ptr noundef %34)
  call void @llvm.lifetime.end.p0(i64 8, ptr %3) #10
  ret void
}