; Function Attrs: nounwind uwtable
define internal fastcc void @add_p_state_clear(ptr noundef nonnull %0) unnamed_addr #0 {
  %2 = getelementptr inbounds nuw i8, ptr %0, i64 712
  tail call void @strbuf_release(ptr noundef nonnull %2) #17
  %3 = getelementptr inbounds nuw i8, ptr %0, i64 736
  tail call void @strbuf_release(ptr noundef nonnull %3) #17
  %4 = getelementptr inbounds nuw i8, ptr %0, i64 760
  tail call void @strbuf_release(ptr noundef nonnull %4) #17
  %5 = getelementptr inbounds nuw i8, ptr %0, i64 784
  tail call void @strbuf_release(ptr noundef nonnull %5) #17
  %6 = getelementptr inbounds nuw i8, ptr %0, i64 816
  %7 = load i64, ptr %6, align 8, !tbaa !64
  %.not = icmp eq i64 %7, 0
  br i1 %.not, label %._crit_edge, label %.lr.ph

.lr.ph:                                           ; preds = %1
  %8 = getelementptr inbounds nuw i8, ptr %0, i64 808
  br label %9

9:                                                ; preds = %.lr.ph, %9
  %.010 = phi i64 [ 0, %.lr.ph ], [ %13, %9 ]
  %10 = load ptr, ptr %8, align 8, !tbaa !65
  %11 = getelementptr inbounds nuw %struct.file_diff, ptr %10, i64 %.010, i32 1
  %12 = load ptr, ptr %11, align 8, !tbaa !73
  tail call void @free(ptr noundef %12) #17
  %13 = add nuw i64 %.010, 1
  %14 = load i64, ptr %6, align 8, !tbaa !64
  %15 = icmp ult i64 %13, %14
  br i1 %15, label %9, label %._crit_edge, !llvm.loop !120

._crit_edge:                                      ; preds = %9, %1
  %16 = getelementptr inbounds nuw i8, ptr %0, i64 808
  %17 = load ptr, ptr %16, align 8, !tbaa !65
  tail call void @free(ptr noundef %17) #17
  tail call void @clear_add_i_state(ptr noundef nonnull %0) #17
  ret void
}